target datalayout = "e-m:e-p270:32:32-p271:32:32-p272:64:64-i64:64-i128:128-f80:128-n8:16:32:64-S128"
target triple = "x86_64-pc-linux-gnu"

%struct.pm_buffer_t = type { i64, i64, ptr }

; Function Attrs: nounwind sspstrong uwtable
define hidden void @pm_prettyprint(ptr noundef %0, ptr noundef %1, ptr noundef %2) #0 {
  %4 = alloca ptr, align 8
  %5 = alloca ptr, align 8
  %6 = alloca ptr, align 8
  %7 = alloca %struct.pm_buffer_t, align 8
  store ptr %0, ptr %4, align 8, !tbaa !7
  store ptr %1, ptr %5, align 8, !tbaa !11
  store ptr %2, ptr %6, align 8, !tbaa !13
  call void @llvm.lifetime.start.p0(i64 24, ptr %7) #5
  call void @llvm.memset.p0.i64(ptr align 8 %7, i8 0, i64 24, i1 false)
  %8 = load ptr, ptr %4, align 8, !tbaa !7
  %9 = load ptr, ptr %5, align 8, !tbaa !11
  %10 = load ptr, ptr %6, align 8, !tbaa !13
  call void @prettyprint_node(ptr noundef %8, ptr noundef %9, ptr noundef %10, ptr noundef %7)
  call void @pm_buffer_free(ptr noundef %7)
  call void @llvm.lifetime.end.p0(i64 24, ptr %7) #5
  ret void
}