; Function Attrs: nounwind sspstrong uwtable
define hidden void @pm_prettyprint(ptr noundef %0, ptr noundef %1, ptr noundef %2) local_unnamed_addr #0 {
  %4 = alloca %struct.pm_buffer_t, align 8
  call void @llvm.lifetime.start.p0(i64 24, ptr nonnull %4) #5
  call void @llvm.memset.p0.i64(ptr noundef nonnull align 8 dereferenceable(24) %4, i8 0, i64 24, i1 false)
  call fastcc void @prettyprint_node(ptr noundef %0, ptr noundef %1, ptr noundef %2, ptr noundef %4)
  call void @pm_buffer_free(ptr noundef nonnull %4) #5
  call void @llvm.lifetime.end.p0(i64 24, ptr nonnull %4) #5
  ret void
}